; Function Attrs: mustprogress nofree norecurse nosync nounwind memory(argmem: readwrite) uwtable
define noundef i32 @_ZN13MarchingCubes18AddTriangleIndicesEPKffPi(ptr noundef readonly captures(none) %0, float noundef %1, ptr noundef writeonly captures(none) %2) local_unnamed_addr #7 align 2 {
  %4 = load float, ptr %0, align 4
  %5 = fcmp olt float %4, %1
  %.0.i = zext i1 %5 to i8
  %6 = getelementptr inbounds nuw i8, ptr %0, i64 4
  %7 = load float, ptr %6, align 4
  %8 = fcmp olt float %7, %1
  %9 = or disjoint i8 %.0.i, 2
  %.1.i = select i1 %8, i8 %9, i8 %.0.i
  %10 = getelementptr inbounds nuw i8, ptr %0, i64 12
  %11 = load float, ptr %10, align 4
  %12 = fcmp olt float %11, %1
  %13 = or disjoint i8 %.1.i, 4
  %.2.i = select i1 %12, i8 %13, i8 %.1.i
  %14 = getelementptr inbounds nuw i8, ptr %0, i64 8
  %15 = load float, ptr %14, align 4
  %16 = fcmp olt float %15, %1
  %17 = or disjoint i8 %.2.i, 8
  %.3.i = select i1 %16, i8 %17, i8 %.2.i
  %18 = getelementptr inbounds nuw i8, ptr %0, i64 16
  %19 = load float, ptr %18, align 4
  %20 = fcmp olt float %19, %1
  %21 = or i8 %.3.i, 16
  %.4.i = select i1 %20, i8 %21, i8 %.3.i
  %22 = getelementptr inbounds nuw i8, ptr %0, i64 20
  %23 = load float, ptr %22, align 4
  %24 = fcmp olt float %23, %1
  %25 = or i8 %.4.i, 32
  %.5.i = select i1 %24, i8 %25, i8 %.4.i
  %26 = getelementptr inbounds nuw i8, ptr %0, i64 28
  %27 = load float, ptr %26, align 4
  %28 = fcmp olt float %27, %1
  %29 = or i8 %.5.i, 64
  %.6.i = select i1 %28, i8 %29, i8 %.5.i
  %30 = getelementptr inbounds nuw i8, ptr %0, i64 24
  %31 = load float, ptr %30, align 4
  %32 = fcmp olt float %31, %1
  %33 = or i8 %.6.i, -128
  %.7.i = select i1 %32, i8 %33, i8 %.6.i
  %34 = zext i8 %.7.i to i64
  switch i8 %.7.i, label %.preheader.i [
    i8 -1, label %_ZN13MarchingCubes18AddTriangleIndicesEiPi.exit
    i8 0, label %_ZN13MarchingCubes18AddTriangleIndicesEiPi.exit
  ]

.preheader.i:                                     ; preds = %3, %40
  %indvars.iv25.i = phi i64 [ %indvars.iv.next26.i, %40 ], [ 0, %3 ]
  %.01521.i = phi i32 [ %41, %40 ], [ 0, %3 ]
  br label %35

35:                                               ; preds = %35, %.preheader.i
  %indvars.iv.i = phi i64 [ 0, %.preheader.i ], [ %indvars.iv.next.i, %35 ]
  %36 = add nuw nsw i64 %indvars.iv.i, %indvars.iv25.i
  %37 = getelementptr inbounds nuw [256 x [16 x i32]], ptr @_ZN13MarchingCubes9trianglesE, i64 0, i64 %34, i64 %36
  %38 = load i32, ptr %37, align 4
  %39 = getelementptr inbounds nuw i32, ptr %2, i64 %36
  store i32 %38, ptr %39, align 4
  %indvars.iv.next.i = add nuw nsw i64 %indvars.iv.i, 1
  %exitcond.not.i = icmp eq i64 %indvars.iv.next.i, 3
  br i1 %exitcond.not.i, label %40, label %35, !llvm.loop !21

40:                                               ; preds = %35
  %41 = add nuw nsw i32 %.01521.i, 1
  %indvars.iv.next26.i = add nuw nsw i64 %indvars.iv25.i, 3
  %42 = getelementptr inbounds nuw [256 x [16 x i32]], ptr @_ZN13MarchingCubes9trianglesE, i64 0, i64 %34, i64 %indvars.iv.next26.i
  %43 = load i32, ptr %42, align 4
  %.not17.i = icmp eq i32 %43, -1
  br i1 %.not17.i, label %_ZN13MarchingCubes18AddTriangleIndicesEiPi.exit, label %.preheader.i, !llvm.loop !22

_ZN13MarchingCubes18AddTriangleIndicesEiPi.exit:  ; preds = %40, %3, %3
  %.016.i = phi i32 [ 0, %3 ], [ 0, %3 ], [ %41, %40 ]
  ret i32 %.016.i
}